; Function Attrs: mustprogress nofree norecurse nosync nounwind willreturn memory(read, inaccessiblemem: none) uwtable
define dso_local noundef zeroext i1 @_ZNK4llvm12MachineInstr24isStackAligningInlineAsmEv(ptr nocapture noundef nonnull readonly align 8 dereferenceable(70) %0) local_unnamed_addr #3 align 2 {
  %2 = getelementptr inbounds nuw i8, ptr %0, i64 68
  %3 = load i16, ptr %2, align 4
  %4 = add i16 %3, -1
  %spec.select.i = icmp ult i16 %4, 2
  br i1 %spec.select.i, label %5, label %11

5:                                                ; preds = %1
  %6 = getelementptr inbounds nuw i8, ptr %0, i64 32
  %7 = load ptr, ptr %6, align 8
  %8 = getelementptr inbounds i8, ptr %7, i64 48
  %9 = load i64, ptr %8, align 8
  %10 = and i64 %9, 2
  %.not = icmp eq i64 %10, 0
  br i1 %.not, label %11, label %12

11:                                               ; preds = %5, %1
  br label %12

12:                                               ; preds = %5, %11
  %.0 = phi i1 [ false, %11 ], [ true, %5 ]
  ret i1 %.0
}